target datalayout = "e-m:e-p270:32:32-p271:32:32-p272:64:64-i64:64-i128:128-f80:128-n8:16:32:64-S128"
target triple = "x86_64-pc-linux-gnu"

%struct.AVFilterLink = type { ptr, ptr, ptr, ptr, i32, i32, i32, i32, %struct.AVRational, i32, i32, i32, %struct.AVChannelLayout, %struct.AVRational, ptr, i32, %struct.AVFilterFormatsConfig, %struct.AVFilterFormatsConfig }
%struct.AVChannelLayout = type { i32, i32, %union.anon, ptr }
%union.anon = type { i64 }
%struct.AVRational = type { i32, i32 }
%struct.AVFilterFormatsConfig = type { ptr, ptr, ptr, ptr, ptr }

@negotiate_video = internal constant { i32, [4 x i8], ptr, ptr, i32, [4 x i8] } { i32 3, [4 x i8] zeroinitializer, ptr @mergers_video, ptr @.str.12, i32 24, [4 x i8] zeroinitializer }, align 8
@negotiate_audio = internal constant { i32, [4 x i8], ptr, ptr, i32, [4 x i8] } { i32 3, [4 x i8] zeroinitializer, ptr @mergers_audio, ptr @.str.15, i32 56, [4 x i8] zeroinitializer }, align 8

; Function Attrs: nounwind uwtable
define ptr @ff_filter_get_negotiation(ptr noundef %0) #0 {
  %2 = alloca ptr, align 8
  %3 = alloca ptr, align 8
  store ptr %0, ptr %3, align 8, !tbaa !4
  %4 = load ptr, ptr %3, align 8, !tbaa !4
  %5 = getelementptr inbounds nuw %struct.AVFilterLink, ptr %4, i32 0, i32 4
  %6 = load i32, ptr %5, align 8, !tbaa !9
  switch i32 %6, label %9 [
    i32 0, label %7
    i32 1, label %8
  ]

7:                                                ; preds = %1
  store ptr @negotiate_video, ptr %2, align 8
  br label %10

8:                                                ; preds = %1
  store ptr @negotiate_audio, ptr %2, align 8
  br label %10

9:                                                ; preds = %1
  store ptr null, ptr %2, align 8
  br label %10

10:                                               ; preds = %9, %8, %7
  %11 = load ptr, ptr %2, align 8
  ret ptr %11
}