; Function Attrs: mustprogress nofree norecurse nosync nounwind willreturn memory(argmem: read) uwtable
define ptr @ff_filter_get_negotiation(ptr noundef readonly captures(none) %0) local_unnamed_addr #0 {
  %2 = getelementptr inbounds nuw i8, ptr %0, i64 32
  %3 = load i32, ptr %2, align 8, !tbaa !4
  %switch.selectcmp = icmp eq i32 %3, 1
  %switch.select = select i1 %switch.selectcmp, ptr @negotiate_audio, ptr null
  %switch.selectcmp2 = icmp eq i32 %3, 0
  %switch.select3 = select i1 %switch.selectcmp2, ptr @negotiate_video, ptr %switch.select
  ret ptr %switch.select3
}